; Function Attrs: alwaysinline norecurse nounwind uwtable
define internal void @_ZN5faiss12_GLOBAL__N_115hammings_knn_mcINS_22HammingComputerDefaultEEEviPKhS4_mmmPiPl.omp_outlined(ptr noalias noundef readonly captures(none) %0, ptr noalias readnone captures(none) %1, ptr noundef nonnull readonly align 8 captures(none) dereferenceable(8) %2, ptr noundef nonnull readonly align 8 captures(none) dereferenceable(8) %3, ptr noundef nonnull readonly align 8 captures(none) dereferenceable(8) %4, ptr noundef nonnull readonly align 8 captures(none) dereferenceable(24) %5, ptr noundef nonnull readonly align 8 captures(none) dereferenceable(8) %6, ptr noundef nonnull readonly align 4 captures(none) dereferenceable(4) %7) #17 personality ptr @__gxx_personality_v0 {
  %9 = alloca i64, align 8
  %10 = alloca i64, align 8
  %11 = alloca i64, align 8
  %12 = alloca i32, align 4
  %13 = load i64, ptr %2, align 8, !tbaa !4
  %.not = icmp eq i64 %13, 0
  br i1 %.not, label %93, label %14

14:                                               ; preds = %8
  %15 = add i64 %13, -1
  call void @llvm.lifetime.start.p0(i64 8, ptr nonnull %9) #5
  store i64 0, ptr %9, align 8, !tbaa !4
  call void @llvm.lifetime.start.p0(i64 8, ptr nonnull %10) #5
  store i64 %15, ptr %10, align 8, !tbaa !4
  call void @llvm.lifetime.start.p0(i64 8, ptr nonnull %11) #5
  store i64 1, ptr %11, align 8, !tbaa !4
  call void @llvm.lifetime.start.p0(i64 4, ptr nonnull %12) #5
  store i32 0, ptr %12, align 4, !tbaa !10
  %16 = load i32, ptr %0, align 4, !tbaa !10
  call void @__kmpc_for_static_init_8u(ptr nonnull @1, i32 %16, i32 34, ptr nonnull %12, ptr nonnull %9, ptr nonnull %10, ptr nonnull %11, i64 1, i64 1)
  %17 = load i64, ptr %10, align 8, !tbaa !4
  %18 = call i64 @llvm.umin.i64(i64 %17, i64 %15)
  store i64 %18, ptr %10, align 8, !tbaa !4
  %19 = load i64, ptr %9, align 8, !tbaa !4
  %.not27 = icmp ugt i64 %19, %18
  br i1 %.not27, label %._crit_edge25, label %.lr.ph24

.lr.ph24:                                         ; preds = %14
  %20 = load i64, ptr %3, align 8, !tbaa !4
  %21 = load i64, ptr %4, align 8, !tbaa !4
  %22 = icmp ult i64 %20, %21
  br i1 %22, label %.lr.ph24.split, label %._crit_edge25

.lr.ph24.split:                                   ; preds = %.lr.ph24, %._crit_edge
  %23 = phi i64 [ %27, %._crit_edge ], [ %18, %.lr.ph24 ]
  %24 = phi i64 [ %28, %._crit_edge ], [ %21, %.lr.ph24 ]
  %.02022 = phi i64 [ %29, %._crit_edge ], [ %19, %.lr.ph24 ]
  %25 = load i64, ptr %3, align 8, !tbaa !4
  %26 = icmp ult i64 %25, %24
  br i1 %26, label %.lr.ph, label %._crit_edge

._crit_edge.loopexit:                             ; preds = %_ZN5faiss13HCounterStateINS_22HammingComputerDefaultEE14update_counterEPKhm.exit
  %.pre = load i64, ptr %10, align 8, !tbaa !4
  br label %._crit_edge

._crit_edge:                                      ; preds = %._crit_edge.loopexit, %.lr.ph24.split
  %27 = phi i64 [ %.pre, %._crit_edge.loopexit ], [ %23, %.lr.ph24.split ]
  %28 = phi i64 [ %91, %._crit_edge.loopexit ], [ %24, %.lr.ph24.split ]
  %29 = add nuw i64 %.02022, 1
  %30 = add i64 %27, 1
  %31 = icmp ult i64 %29, %30
  br i1 %31, label %.lr.ph24.split, label %._crit_edge25, !llvm.loop !793

.lr.ph:                                           ; preds = %.lr.ph24.split, %_ZN5faiss13HCounterStateINS_22HammingComputerDefaultEE14update_counterEPKhm.exit
  %.021 = phi i64 [ %90, %_ZN5faiss13HCounterStateINS_22HammingComputerDefaultEE14update_counterEPKhm.exit ], [ %25, %.lr.ph24.split ]
  %32 = load ptr, ptr %5, align 8, !tbaa !737
  %33 = getelementptr inbounds nuw %"struct.faiss::HCounterState.51", ptr %32, i64 %.02022
  %34 = load ptr, ptr %6, align 8, !tbaa !22
  %35 = load i32, ptr %7, align 4, !tbaa !10
  %36 = sext i32 %35 to i64
  %37 = mul i64 %.021, %36
  %38 = getelementptr inbounds nuw i8, ptr %34, i64 %37
  %39 = getelementptr inbounds nuw i8, ptr %33, i64 16
  %40 = call noundef i32 @_ZNK5faiss22HammingComputerDefault7hammingEPKh(ptr noundef nonnull align 8 dereferenceable(16) %39, ptr noundef %38)
  %41 = getelementptr inbounds nuw i8, ptr %33, i64 32
  %42 = load i32, ptr %41, align 8, !tbaa !794
  %.not.i = icmp sgt i32 %40, %42
  br i1 %.not.i, label %_ZN5faiss13HCounterStateINS_22HammingComputerDefaultEE14update_counterEPKhm.exit, label %43

43:                                               ; preds = %.lr.ph
  %44 = icmp slt i32 %40, %42
  %45 = getelementptr inbounds nuw i8, ptr %33, i64 44
  %46 = load i32, ptr %45, align 4, !tbaa !795
  br i1 %44, label %47, label %75

47:                                               ; preds = %43
  %48 = getelementptr inbounds nuw i8, ptr %33, i64 8
  %49 = load ptr, ptr %48, align 8, !tbaa !747
  %50 = mul nsw i32 %46, %40
  %51 = load ptr, ptr %33, align 8, !tbaa !740
  %52 = sext i32 %40 to i64
  %53 = getelementptr inbounds i32, ptr %51, i64 %52
  %54 = load i32, ptr %53, align 4, !tbaa !10
  %55 = add nsw i32 %54, 1
  store i32 %55, ptr %53, align 4, !tbaa !10
  %56 = add nsw i32 %54, %50
  %57 = sext i32 %56 to i64
  %58 = getelementptr inbounds i64, ptr %49, i64 %57
  store i64 %.021, ptr %58, align 8, !tbaa !4
  %59 = getelementptr inbounds nuw i8, ptr %33, i64 36
  %60 = load i32, ptr %59, align 4, !tbaa !796
  %61 = add nsw i32 %60, 1
  %62 = load i32, ptr %45, align 4, !tbaa !795
  %.promoted.i = load i32, ptr %41, align 1
  store i32 %61, ptr %59, align 4, !tbaa !796
  %63 = icmp eq i32 %61, %62
  br i1 %63, label %.lr.ph.i, label %_ZN5faiss13HCounterStateINS_22HammingComputerDefaultEE14update_counterEPKhm.exit

.lr.ph.i:                                         ; preds = %47
  %64 = getelementptr inbounds nuw i8, ptr %33, i64 40
  %65 = zext i32 %.promoted.i to i64
  br label %66

66:                                               ; preds = %69, %.lr.ph.i
  %indvars.iv.i = phi i64 [ %65, %.lr.ph.i ], [ %indvars.iv.next.i, %69 ]
  %67 = trunc nuw i64 %indvars.iv.i to i32
  %68 = icmp sgt i32 %67, 0
  br i1 %68, label %69, label %_ZN5faiss13HCounterStateINS_22HammingComputerDefaultEE14update_counterEPKhm.exit

69:                                               ; preds = %66
  %indvars.iv.next.i = add nsw i64 %indvars.iv.i, -1
  %indvars.i = trunc i64 %indvars.iv.next.i to i32
  store i32 %indvars.i, ptr %41, align 8, !tbaa !794
  %70 = and i64 %indvars.iv.next.i, 4294967295
  %71 = getelementptr inbounds nuw i32, ptr %51, i64 %70
  %72 = load i32, ptr %71, align 4, !tbaa !10
  store i32 %72, ptr %64, align 8, !tbaa !797
  %73 = sub nsw i32 %61, %72
  store i32 %73, ptr %59, align 4, !tbaa !796
  %74 = icmp eq i32 %72, 0
  br i1 %74, label %66, label %_ZN5faiss13HCounterStateINS_22HammingComputerDefaultEE14update_counterEPKhm.exit, !llvm.loop !798

75:                                               ; preds = %43
  %76 = getelementptr inbounds nuw i8, ptr %33, i64 40
  %77 = load i32, ptr %76, align 8, !tbaa !797
  %78 = icmp slt i32 %77, %46
  br i1 %78, label %79, label %_ZN5faiss13HCounterStateINS_22HammingComputerDefaultEE14update_counterEPKhm.exit

79:                                               ; preds = %75
  %80 = getelementptr inbounds nuw i8, ptr %33, i64 8
  %81 = load ptr, ptr %80, align 8, !tbaa !747
  %82 = mul nsw i32 %46, %40
  %83 = add nsw i32 %77, 1
  store i32 %83, ptr %76, align 8, !tbaa !797
  %84 = add nsw i32 %77, %82
  %85 = sext i32 %84 to i64
  %86 = getelementptr inbounds i64, ptr %81, i64 %85
  store i64 %.021, ptr %86, align 8, !tbaa !4
  %87 = load ptr, ptr %33, align 8, !tbaa !740
  %88 = sext i32 %40 to i64
  %89 = getelementptr inbounds i32, ptr %87, i64 %88
  store i32 %83, ptr %89, align 4, !tbaa !10
  br label %_ZN5faiss13HCounterStateINS_22HammingComputerDefaultEE14update_counterEPKhm.exit

_ZN5faiss13HCounterStateINS_22HammingComputerDefaultEE14update_counterEPKhm.exit: ; preds = %66, %69, %.lr.ph, %47, %75, %79
  %90 = add nuw i64 %.021, 1
  %91 = load i64, ptr %4, align 8, !tbaa !4
  %92 = icmp ult i64 %90, %91
  br i1 %92, label %.lr.ph, label %._crit_edge.loopexit, !llvm.loop !799

._crit_edge25:                                    ; preds = %._crit_edge, %.lr.ph24, %14
  call void @__kmpc_for_static_fini(ptr nonnull @1, i32 %16)
  call void @llvm.lifetime.end.p0(i64 4, ptr nonnull %12) #5
  call void @llvm.lifetime.end.p0(i64 8, ptr nonnull %11) #5
  call void @llvm.lifetime.end.p0(i64 8, ptr nonnull %10) #5
  call void @llvm.lifetime.end.p0(i64 8, ptr nonnull %9) #5
  br label %93

93:                                               ; preds = %._crit_edge25, %8
  ret void
}